target datalayout = "e-m:e-p270:32:32-p271:32:32-p272:64:64-i64:64-i128:128-f80:128-n8:16:32:64-S128"
target triple = "x86_64-unknown-linux-gnu"

%struct.z_stream_s = type { ptr, i32, i64, ptr, i32, i64, ptr, ptr, ptr, ptr, ptr, i32, i64, i64 }
%"class.google::protobuf::io::GzipOutputStream" = type { %"class.google::protobuf::io::ZeroCopyOutputStream", ptr, ptr, i32, %struct.z_stream_s, i32, ptr, i64 }
%"class.google::protobuf::io::ZeroCopyOutputStream" = type { ptr }

; Function Attrs: mustprogress uwtable
define noundef zeroext i1 @_ZN6google8protobuf2io16GzipOutputStream4NextEPPvPi(ptr noundef nonnull align 8 dereferenceable(168) %this, ptr noundef %data, ptr noundef %size) unnamed_addr #4 align 2 {
entry:
  %retval = alloca i1, align 1
  %this.addr = alloca ptr, align 8
  %data.addr = alloca ptr, align 8
  %size.addr = alloca ptr, align 8
  store ptr %this, ptr %this.addr, align 8
  store ptr %data, ptr %data.addr, align 8
  store ptr %size, ptr %size.addr, align 8
  %this1 = load ptr, ptr %this.addr, align 8
  %zerror_ = getelementptr inbounds %"class.google::protobuf::io::GzipOutputStream", ptr %this1, i32 0, i32 5
  %0 = load i32, ptr %zerror_, align 8
  %cmp = icmp ne i32 %0, 0
  br i1 %cmp, label %land.lhs.true, label %if.end

land.lhs.true:                                    ; preds = %entry
  %zerror_2 = getelementptr inbounds %"class.google::protobuf::io::GzipOutputStream", ptr %this1, i32 0, i32 5
  %1 = load i32, ptr %zerror_2, align 8
  %cmp3 = icmp ne i32 %1, -5
  br i1 %cmp3, label %if.then, label %if.end

if.then:                                          ; preds = %land.lhs.true
  store i1 false, ptr %retval, align 1
  br label %return

if.end:                                           ; preds = %land.lhs.true, %entry
  %zcontext_ = getelementptr inbounds %"class.google::protobuf::io::GzipOutputStream", ptr %this1, i32 0, i32 4
  %avail_in = getelementptr inbounds %struct.z_stream_s, ptr %zcontext_, i32 0, i32 1
  %2 = load i32, ptr %avail_in, align 8
  %cmp4 = icmp ne i32 %2, 0
  br i1 %cmp4, label %if.then5, label %if.end11

if.then5:                                         ; preds = %if.end
  %call = call noundef i32 @_ZN6google8protobuf2io16GzipOutputStream7DeflateEi(ptr noundef nonnull align 8 dereferenceable(168) %this1, i32 noundef 0)
  %zerror_6 = getelementptr inbounds %"class.google::protobuf::io::GzipOutputStream", ptr %this1, i32 0, i32 5
  store i32 %call, ptr %zerror_6, align 8
  %zerror_7 = getelementptr inbounds %"class.google::protobuf::io::GzipOutputStream", ptr %this1, i32 0, i32 5
  %3 = load i32, ptr %zerror_7, align 8
  %cmp8 = icmp ne i32 %3, 0
  br i1 %cmp8, label %if.then9, label %if.end10

if.then9:                                         ; preds = %if.then5
  store i1 false, ptr %retval, align 1
  br label %return

if.end10:                                         ; preds = %if.then5
  br label %if.end11

if.end11:                                         ; preds = %if.end10, %if.end
  %zcontext_12 = getelementptr inbounds %"class.google::protobuf::io::GzipOutputStream", ptr %this1, i32 0, i32 4
  %avail_in13 = getelementptr inbounds %struct.z_stream_s, ptr %zcontext_12, i32 0, i32 1
  %4 = load i32, ptr %avail_in13, align 8
  %cmp14 = icmp eq i32 %4, 0
  br i1 %cmp14, label %if.then15, label %if.else

if.then15:                                        ; preds = %if.end11
  %input_buffer_ = getelementptr inbounds %"class.google::protobuf::io::GzipOutputStream", ptr %this1, i32 0, i32 6
  %5 = load ptr, ptr %input_buffer_, align 8
  %zcontext_16 = getelementptr inbounds %"class.google::protobuf::io::GzipOutputStream", ptr %this1, i32 0, i32 4
  %next_in = getelementptr inbounds %struct.z_stream_s, ptr %zcontext_16, i32 0, i32 0
  store ptr %5, ptr %next_in, align 8
  %input_buffer_length_ = getelementptr inbounds %"class.google::protobuf::io::GzipOutputStream", ptr %this1, i32 0, i32 7
  %6 = load i64, ptr %input_buffer_length_, align 8
  %conv = trunc i64 %6 to i32
  %zcontext_17 = getelementptr inbounds %"class.google::protobuf::io::GzipOutputStream", ptr %this1, i32 0, i32 4
  %avail_in18 = getelementptr inbounds %struct.z_stream_s, ptr %zcontext_17, i32 0, i32 1
  store i32 %conv, ptr %avail_in18, align 8
  %input_buffer_19 = getelementptr inbounds %"class.google::protobuf::io::GzipOutputStream", ptr %this1, i32 0, i32 6
  %7 = load ptr, ptr %input_buffer_19, align 8
  %8 = load ptr, ptr %data.addr, align 8
  store ptr %7, ptr %8, align 8
  %input_buffer_length_20 = getelementptr inbounds %"class.google::protobuf::io::GzipOutputStream", ptr %this1, i32 0, i32 7
  %9 = load i64, ptr %input_buffer_length_20, align 8
  %conv21 = trunc i64 %9 to i32
  %10 = load ptr, ptr %size.addr, align 8
  store i32 %conv21, ptr %10, align 4
  br label %if.end22

if.else:                                          ; preds = %if.end11
  br label %if.end22

if.end22:                                         ; preds = %if.else, %if.then15
  store i1 true, ptr %retval, align 1
  br label %return

return:                                           ; preds = %if.end22, %if.then9, %if.then
  %11 = load i1, ptr %retval, align 1
  ret i1 %11
}