; Function Attrs: mustprogress uwtable
define noundef zeroext i1 @_ZN6google8protobuf2io16GzipOutputStream4NextEPPvPi(ptr noundef nonnull align 8 dereferenceable(168) %this, ptr nocapture noundef writeonly %data, ptr nocapture noundef writeonly %size) unnamed_addr #3 align 2 {
entry:
  %zerror_ = getelementptr inbounds i8, ptr %this, i64 144
  %0 = load i32, ptr %zerror_, align 8
  switch i32 %0, label %return [
    i32 0, label %if.end
    i32 -5, label %if.end
  ]

if.end:                                           ; preds = %entry, %entry
  %zcontext_ = getelementptr inbounds i8, ptr %this, i64 32
  %avail_in = getelementptr inbounds i8, ptr %this, i64 40
  %1 = load i32, ptr %avail_in, align 8
  %cmp4.not = icmp eq i32 %1, 0
  br i1 %cmp4.not, label %if.then15, label %if.then5

if.then5:                                         ; preds = %if.end
  %call = tail call noundef i32 @_ZN6google8protobuf2io16GzipOutputStream7DeflateEi(ptr noundef nonnull align 8 dereferenceable(168) %this, i32 noundef 0)
  store i32 %call, ptr %zerror_, align 8
  %cmp8.not = icmp eq i32 %call, 0
  br i1 %cmp8.not, label %if.end11, label %return

if.end11:                                         ; preds = %if.then5
  %.pr = load i32, ptr %avail_in, align 8
  %cmp14 = icmp eq i32 %.pr, 0
  br i1 %cmp14, label %if.then15, label %return

if.then15:                                        ; preds = %if.end, %if.end11
  %input_buffer_ = getelementptr inbounds i8, ptr %this, i64 152
  %2 = load ptr, ptr %input_buffer_, align 8
  store ptr %2, ptr %zcontext_, align 8
  %input_buffer_length_ = getelementptr inbounds i8, ptr %this, i64 160
  %3 = load i64, ptr %input_buffer_length_, align 8
  %conv = trunc i64 %3 to i32
  store i32 %conv, ptr %avail_in, align 8
  store ptr %2, ptr %data, align 8
  %4 = load i64, ptr %input_buffer_length_, align 8
  %conv21 = trunc i64 %4 to i32
  store i32 %conv21, ptr %size, align 4
  br label %return

return:                                           ; preds = %if.then15, %if.end11, %if.then5, %entry
  %retval.0 = phi i1 [ false, %entry ], [ false, %if.then5 ], [ true, %if.end11 ], [ true, %if.then15 ]
  ret i1 %retval.0
}